target datalayout = "e-m:e-p270:32:32-p271:32:32-p272:64:64-i64:64-i128:128-f80:128-n8:16:32:64-S128"
target triple = "x86_64-pc-linux-gnu"

@bio_err = external global ptr, align 8
@sess_out = internal global ptr null, align 8
@.str.409 = private unnamed_addr constant [2 x i8] c"w\00", align 1
@bio_c_out = internal global ptr null, align 8
@.str.571 = private unnamed_addr constant [31 x i8] c"Error writing session file %s\0A\00", align 1
@.str.572 = private unnamed_addr constant [48 x i8] c"---\0APost-Handshake New Session Ticket arrived:\0A\00", align 1
@.str.573 = private unnamed_addr constant [5 x i8] c"---\0A\00", align 1

; Function Attrs: nounwind uwtable
define internal i32 @new_session_cb(ptr noundef %0, ptr noundef %1) #0 {
  %3 = alloca ptr, align 8
  %4 = alloca ptr, align 8
  %5 = alloca ptr, align 8
  store ptr %0, ptr %3, align 8, !tbaa !13
  store ptr %1, ptr %4, align 8, !tbaa !70
  %6 = load ptr, ptr @sess_out, align 8, !tbaa !29
  %7 = icmp ne ptr %6, null
  br i1 %7, label %8, label %24

8:                                                ; preds = %2
  call void @llvm.lifetime.start.p0(i64 8, ptr %5) #10
  %9 = load ptr, ptr @sess_out, align 8, !tbaa !29
  %10 = call ptr @BIO_new_file(ptr noundef %9, ptr noundef @.str.409)
  store ptr %10, ptr %5, align 8, !tbaa !40
  %11 = load ptr, ptr %5, align 8, !tbaa !40
  %12 = icmp eq ptr %11, null
  br i1 %12, label %13, label %17

13:                                               ; preds = %8
  %14 = load ptr, ptr @bio_err, align 8, !tbaa !40
  %15 = load ptr, ptr @sess_out, align 8, !tbaa !29
  %16 = call i32 (ptr, ptr, ...) @BIO_printf(ptr noundef %14, ptr noundef @.str.571, ptr noundef %15)
  br label %23

17:                                               ; preds = %8
  %18 = load ptr, ptr %5, align 8, !tbaa !40
  %19 = load ptr, ptr %4, align 8, !tbaa !70
  %20 = call i32 @PEM_write_bio_SSL_SESSION(ptr noundef %18, ptr noundef %19)
  %21 = load ptr, ptr %5, align 8, !tbaa !40
  %22 = call i32 @BIO_free(ptr noundef %21)
  br label %23

23:                                               ; preds = %17, %13
  call void @llvm.lifetime.end.p0(i64 8, ptr %5) #10
  br label %24

24:                                               ; preds = %23, %2
  %25 = load ptr, ptr %3, align 8, !tbaa !13
  %26 = call i32 @SSL_version(ptr noundef %25)
  %27 = icmp eq i32 %26, 772
  br i1 %27, label %28, label %36

28:                                               ; preds = %24
  %29 = load ptr, ptr @bio_c_out, align 8, !tbaa !40
  %30 = call i32 (ptr, ptr, ...) @BIO_printf(ptr noundef %29, ptr noundef @.str.572)
  %31 = load ptr, ptr @bio_c_out, align 8, !tbaa !40
  %32 = load ptr, ptr %4, align 8, !tbaa !70
  %33 = call i32 @SSL_SESSION_print(ptr noundef %31, ptr noundef %32)
  %34 = load ptr, ptr @bio_c_out, align 8, !tbaa !40
  %35 = call i32 (ptr, ptr, ...) @BIO_printf(ptr noundef %34, ptr noundef @.str.573)
  br label %36

36:                                               ; preds = %28, %24
  ret i32 0
}