; Function Attrs: nounwind uwtable
define internal noundef i32 @new_session_cb(ptr noundef %0, ptr noundef %1) #0 {
  %3 = load ptr, ptr @sess_out, align 8, !tbaa !11
  %.not = icmp eq ptr %3, null
  br i1 %.not, label %14, label %4

4:                                                ; preds = %2
  %5 = tail call ptr @BIO_new_file(ptr noundef nonnull %3, ptr noundef nonnull @.str.409) #15
  %6 = icmp eq ptr %5, null
  br i1 %6, label %7, label %11

7:                                                ; preds = %4
  %8 = load ptr, ptr @bio_err, align 8, !tbaa !19
  %9 = load ptr, ptr @sess_out, align 8, !tbaa !11
  %10 = tail call i32 (ptr, ptr, ...) @BIO_printf(ptr noundef %8, ptr noundef nonnull @.str.571, ptr noundef %9) #15
  br label %14

11:                                               ; preds = %4
  %12 = tail call i32 @PEM_write_bio_SSL_SESSION(ptr noundef nonnull %5, ptr noundef %1) #15
  %13 = tail call i32 @BIO_free(ptr noundef nonnull %5) #15
  br label %14

14:                                               ; preds = %7, %11, %2
  %15 = tail call i32 @SSL_version(ptr noundef %0) #15
  %16 = icmp eq i32 %15, 772
  br i1 %16, label %17, label %24

17:                                               ; preds = %14
  %18 = load ptr, ptr @bio_c_out, align 8, !tbaa !19
  %19 = tail call i32 (ptr, ptr, ...) @BIO_printf(ptr noundef %18, ptr noundef nonnull @.str.572) #15
  %20 = load ptr, ptr @bio_c_out, align 8, !tbaa !19
  %21 = tail call i32 @SSL_SESSION_print(ptr noundef %20, ptr noundef %1) #15
  %22 = load ptr, ptr @bio_c_out, align 8, !tbaa !19
  %23 = tail call i32 (ptr, ptr, ...) @BIO_printf(ptr noundef %22, ptr noundef nonnull @.str.573) #15
  br label %24

24:                                               ; preds = %17, %14
  ret i32 0
}